target datalayout = "e-m:e-p270:32:32-p271:32:32-p272:64:64-i64:64-i128:128-f80:128-n8:16:32:64-S128"
target triple = "x86_64-pc-linux-gnu"

%class.AstNode = type { ptr, ptr, ptr, ptr, ptr, ptr, ptr, ptr, %class.VNType, %struct.anon, i8, i32, ptr, ptr, ptr, ptr, %class.VNUser, i32, i32, %class.VNUser, %class.VNUser, i32, i32, %class.VNUser }
%class.VNType = type { i16 }
%struct.anon = type { i8 }
%class.VNUser = type { %union.anon }
%union.anon = type { ptr }
%class.VNVisitor = type { %class.VNVisitorConst, %class.VNDeleter }
%class.VNVisitorConst = type { ptr }
%class.VNDeleter = type { %"class.std::vector.102" }
%"class.std::vector.102" = type { %"struct.std::_Vector_base.103" }
%"struct.std::_Vector_base.103" = type { %"struct.std::_Vector_base<AstNode *, std::allocator<AstNode *>>::_Vector_impl" }
%"struct.std::_Vector_base<AstNode *, std::allocator<AstNode *>>::_Vector_impl" = type { %"struct.std::_Vector_base<AstNode *, std::allocator<AstNode *>>::_Vector_impl_data" }
%"struct.std::_Vector_base<AstNode *, std::allocator<AstNode *>>::_Vector_impl_data" = type { ptr, ptr, ptr }
%class.VNUser1InUse = type { i8 }
%class.ForkVisitor = type { %class.VNVisitor, %class.VNUser1InUse, i8, i8, ptr, ptr }
%class.VRestorer = type <{ ptr, i8, [7 x i8] }>

; Function Attrs: mustprogress nounwind uwtable
define linkonce_odr dso_local noundef zeroext i1 @_ZeqRK6VNTypeNS_2enE(ptr noundef nonnull align 2 dereferenceable(2) %0, i16 noundef zeroext %1) #5 comdat {
  %3 = alloca ptr, align 8
  %4 = alloca i16, align 2
  store ptr %0, ptr %3, align 8
  store i16 %1, ptr %4, align 2
  %5 = load ptr, ptr %3, align 8
  %6 = getelementptr inbounds %class.VNType, ptr %5, i32 0, i32 0
  %7 = load i16, ptr %6, align 2
  %8 = zext i16 %7 to i32
  %9 = load i16, ptr %4, align 2
  %10 = zext i16 %9 to i32
  %11 = icmp eq i32 %8, %10
  ret i1 %11
}

; Function Attrs: mustprogress nounwind uwtable
define linkonce_odr dso_local i16 @_ZNK7AstNode4typeEv(ptr noundef nonnull align 8 dereferenceable(152) %0) #5 comdat align 2 {
  %2 = alloca %class.VNType, align 2
  %3 = alloca ptr, align 8
  store ptr %0, ptr %3, align 8
  %4 = load ptr, ptr %3, align 8
  %5 = getelementptr inbounds %class.AstNode, ptr %4, i32 0, i32 8
  call void @llvm.memcpy.p0.p0.i64(ptr align 2 %2, ptr align 8 %5, i64 2, i1 false)
  %6 = getelementptr inbounds %class.VNType, ptr %2, i32 0, i32 0
  %7 = load i16, ptr %6, align 2
  ret i16 %7
}

; Function Attrs: mustprogress nounwind uwtable
define linkonce_odr dso_local noundef zeroext i1 @_ZN7AstNode15privateTypeTestI8AstClassEEbPKS_(ptr noundef %0) #5 comdat align 2 {
  %2 = alloca ptr, align 8
  %3 = alloca %class.VNType, align 2
  store ptr %0, ptr %2, align 8
  %4 = load ptr, ptr %2, align 8
  %5 = call i16 @_ZNK7AstNode4typeEv(ptr noundef nonnull align 8 dereferenceable(152) %4)
  %6 = getelementptr inbounds %class.VNType, ptr %3, i32 0, i32 0
  store i16 %5, ptr %6, align 2
  %7 = call noundef zeroext i1 @_ZeqRK6VNTypeNS_2enE(ptr noundef nonnull align 2 dereferenceable(2) %3, i16 noundef zeroext 324)
  ret i1 %7
}

; Function Attrs: mustprogress nounwind uwtable
define linkonce_odr dso_local void @_ZN9VRestorerIbED2Ev(ptr noundef nonnull align 8 dereferenceable(16) %0) unnamed_addr #5 comdat align 2 {
  %2 = alloca ptr, align 8
  store ptr %0, ptr %2, align 8
  %3 = load ptr, ptr %2, align 8
  %4 = getelementptr inbounds %class.VRestorer, ptr %3, i32 0, i32 1
  %5 = load i8, ptr %4, align 8
  %6 = trunc i8 %5 to i1
  %7 = getelementptr inbounds %class.VRestorer, ptr %3, i32 0, i32 0
  %8 = load ptr, ptr %7, align 8
  %9 = zext i1 %6 to i8
  store i8 %9, ptr %8, align 1
  ret void
}

; Function Attrs: mustprogress uwtable
define linkonce_odr dso_local void @_ZN9VNVisitor15iterateChildrenEP7AstNode(ptr noundef nonnull align 8 dereferenceable(32) %0, ptr noundef %1) #4 comdat align 2 {
  %3 = alloca ptr, align 8
  %4 = alloca ptr, align 8
  store ptr %0, ptr %3, align 8
  store ptr %1, ptr %4, align 8
  %5 = load ptr, ptr %3, align 8
  %6 = load ptr, ptr %4, align 8
  call void @_ZN7AstNode15iterateChildrenER9VNVisitor(ptr noundef nonnull align 8 dereferenceable(152) %6, ptr noundef nonnull align 8 dereferenceable(32) %5)
  ret void
}

; Function Attrs: mustprogress uwtable
define linkonce_odr dso_local noundef zeroext i1 @_ZN7AstNode9privateIsI8AstClassP13AstNodeModuleEEbPKS_(ptr noundef %0) #4 comdat align 2 {
  %2 = alloca ptr, align 8
  store ptr %0, ptr %2, align 8
  %3 = load ptr, ptr %2, align 8
  %4 = icmp ne ptr %3, null
  br i1 %4, label %5, label %8

5:                                                ; preds = %1
  %6 = load ptr, ptr %2, align 8
  %7 = call noundef zeroext i1 @_ZN7AstNode15privateTypeTestI8AstClassEEbPKS_(ptr noundef %6)
  br label %8

8:                                                ; preds = %5, %1
  %9 = phi i1 [ false, %1 ], [ %7, %5 ]
  ret i1 %9
}

; Function Attrs: mustprogress nounwind uwtable
define linkonce_odr dso_local void @_ZN9VRestorerIbEC2ERb(ptr noundef nonnull align 8 dereferenceable(16) %0, ptr noundef nonnull align 1 dereferenceable(1) %1) unnamed_addr #5 comdat align 2 {
  %3 = alloca ptr, align 8
  %4 = alloca ptr, align 8
  store ptr %0, ptr %3, align 8
  store ptr %1, ptr %4, align 8
  %5 = load ptr, ptr %3, align 8
  %6 = getelementptr inbounds %class.VRestorer, ptr %5, i32 0, i32 0
  %7 = load ptr, ptr %4, align 8
  store ptr %7, ptr %6, align 8
  %8 = getelementptr inbounds %class.VRestorer, ptr %5, i32 0, i32 1
  %9 = load ptr, ptr %4, align 8
  %10 = load i8, ptr %9, align 1
  %11 = trunc i8 %10 to i1
  %12 = zext i1 %11 to i8
  store i8 %12, ptr %8, align 8
  ret void
}

; Function Attrs: mustprogress uwtable
define internal void @_ZZN7V3Sched14transformForksEP10AstNetlistEN11ForkVisitor5visitEP13AstNodeModule(ptr noundef nonnull align 8 dereferenceable(56) %0, ptr noundef %1) unnamed_addr #4 align 2 personality ptr @__gxx_personality_v0 {
  %3 = alloca ptr, align 8
  %4 = alloca ptr, align 8
  %5 = alloca %class.VRestorer, align 8
  %6 = alloca ptr, align 8
  %7 = alloca i32, align 4
  store ptr %0, ptr %3, align 8
  store ptr %1, ptr %4, align 8
  %8 = load ptr, ptr %3, align 8
  %9 = getelementptr inbounds %class.ForkVisitor, ptr %8, i32 0, i32 2
  call void @_ZN9VRestorerIbEC2ERb(ptr noundef nonnull align 8 dereferenceable(16) %5, ptr noundef nonnull align 1 dereferenceable(1) %9)
  %10 = load ptr, ptr %4, align 8
  %11 = invoke noundef zeroext i1 @_ZN7AstNode9privateIsI8AstClassP13AstNodeModuleEEbPKS_(ptr noundef %10)
          to label %12 unwind label %17

12:                                               ; preds = %2
  %13 = getelementptr inbounds %class.ForkVisitor, ptr %8, i32 0, i32 2
  %14 = zext i1 %11 to i8
  store i8 %14, ptr %13, align 1
  %15 = load ptr, ptr %4, align 8
  invoke void @_ZN9VNVisitor15iterateChildrenEP7AstNode(ptr noundef nonnull align 8 dereferenceable(32) %8, ptr noundef %15)
          to label %16 unwind label %17

16:                                               ; preds = %12
  call void @_ZN9VRestorerIbED2Ev(ptr noundef nonnull align 8 dereferenceable(16) %5) #3
  ret void

17:                                               ; preds = %12, %2
  %18 = landingpad { ptr, i32 }
          cleanup
  %19 = extractvalue { ptr, i32 } %18, 0
  store ptr %19, ptr %6, align 8
  %20 = extractvalue { ptr, i32 } %18, 1
  store i32 %20, ptr %7, align 4
  call void @_ZN9VRestorerIbED2Ev(ptr noundef nonnull align 8 dereferenceable(16) %5) #3
  br label %21

21:                                               ; preds = %17
  %22 = load ptr, ptr %6, align 8
  %23 = load i32, ptr %7, align 4
  %24 = insertvalue { ptr, i32 } poison, ptr %22, 0
  %25 = insertvalue { ptr, i32 } %24, i32 %23, 1
  resume { ptr, i32 } %25
}