; Function Attrs: mustprogress uwtable
define internal void @_ZZN7V3Sched14transformForksEP10AstNetlistEN11ForkVisitor5visitEP13AstNodeModule(ptr noundef nonnull align 8 dereferenceable(56) %0, ptr noundef %1) unnamed_addr #3 align 2 personality ptr @__gxx_personality_v0 {
  %3 = getelementptr inbounds i8, ptr %0, i64 33
  %4 = load i8, ptr %3, align 1
  %5 = and i8 %4, 1
  %.not.i = icmp eq ptr %1, null
  br i1 %.not.i, label %_ZN7AstNode9privateIsI8AstClassP13AstNodeModuleEEbPKS_.exit, label %6

6:                                                ; preds = %2
  %7 = getelementptr inbounds i8, ptr %1, i64 64
  %.sroa.0.0.copyload.i.i.i = load i16, ptr %7, align 8
  %8 = icmp eq i16 %.sroa.0.0.copyload.i.i.i, 324
  %9 = zext i1 %8 to i8
  br label %_ZN7AstNode9privateIsI8AstClassP13AstNodeModuleEEbPKS_.exit

_ZN7AstNode9privateIsI8AstClassP13AstNodeModuleEEbPKS_.exit: ; preds = %6, %2
  %10 = phi i8 [ 0, %2 ], [ %9, %6 ]
  store i8 %10, ptr %3, align 1
  invoke void @_ZN7AstNode15iterateChildrenER9VNVisitor(ptr noundef nonnull align 8 dereferenceable(152) %1, ptr noundef nonnull align 8 dereferenceable(32) %0)
          to label %_ZN9VNVisitor15iterateChildrenEP7AstNode.exit unwind label %11

_ZN9VNVisitor15iterateChildrenEP7AstNode.exit:    ; preds = %_ZN7AstNode9privateIsI8AstClassP13AstNodeModuleEEbPKS_.exit
  store i8 %5, ptr %3, align 1
  ret void

11:                                               ; preds = %_ZN7AstNode9privateIsI8AstClassP13AstNodeModuleEEbPKS_.exit
  %12 = landingpad { ptr, i32 }
          cleanup
  store i8 %5, ptr %3, align 1
  resume { ptr, i32 } %12
}